target datalayout = "e-m:e-p270:32:32-p271:32:32-p272:64:64-i64:64-i128:128-f80:128-n8:16:32:64-S128"
target triple = "x86_64-unknown-linux-gnu"

%"struct.absl::cord_internal::(anonymous namespace)::CordzHandleDeleteTracker" = type { %"class.absl::cord_internal::CordzHandle", ptr }
%"class.absl::cord_internal::CordzHandle" = type { ptr, i8, ptr, ptr }

; Function Attrs: mustprogress nounwind uwtable
define internal void @_ZN4absl13cord_internal12_GLOBAL__N_124CordzHandleDeleteTrackerD2Ev(ptr noundef nonnull align 8 dereferenceable(40) %this) unnamed_addr #7 align 2 {
entry:
  %this.addr = alloca ptr, align 8
  store ptr %this, ptr %this.addr, align 8
  %this1 = load ptr, ptr %this.addr, align 8
  store ptr getelementptr inbounds ({ [4 x ptr] }, ptr @_ZTVN4absl13cord_internal12_GLOBAL__N_124CordzHandleDeleteTrackerE, i32 0, i32 0, i32 2), ptr %this1, align 8
  %deleted = getelementptr inbounds %"struct.absl::cord_internal::(anonymous namespace)::CordzHandleDeleteTracker", ptr %this1, i32 0, i32 1
  %0 = load ptr, ptr %deleted, align 8
  store i8 1, ptr %0, align 1
  call void @_ZN4absl13cord_internal11CordzHandleD2Ev(ptr noundef nonnull align 8 dereferenceable(32) %this1) #3
  ret void
}

; Function Attrs: mustprogress nounwind uwtable
define internal void @_ZN4absl13cord_internal12_GLOBAL__N_124CordzHandleDeleteTrackerD0Ev(ptr noundef nonnull align 8 dereferenceable(40) %this) unnamed_addr #7 align 2 {
entry:
  %this.addr = alloca ptr, align 8
  store ptr %this, ptr %this.addr, align 8
  %this1 = load ptr, ptr %this.addr, align 8
  call void @_ZN4absl13cord_internal12_GLOBAL__N_124CordzHandleDeleteTrackerD2Ev(ptr noundef nonnull align 8 dereferenceable(40) %this1) #3
  call void @_ZdlPv(ptr noundef %this1) #15
  ret void
}